target datalayout = "e-m:e-p270:32:32-p271:32:32-p272:64:64-i64:64-i128:128-f80:128-n8:16:32:64-S128"
target triple = "x86_64-pc-linux-gnu"

%struct.ident_t = type { i32, i32, i32, i32, ptr }
%"class.ncnn::RMSNorm" = type { %"class.ncnn::Layer", i32, float, i32, %"class.ncnn::Mat" }
%"class.ncnn::Layer" = type { ptr, i8, i8, i8, i8, i8, i8, i8, i8, i8, i8, i8, i8, i8, i8, i8, i8, i8, i8, i8, i8, i32, ptr, i32, %"class.std::__cxx11::basic_string", %"class.std::__cxx11::basic_string", %"class.std::vector", %"class.std::vector", %"class.std::vector.3", %"class.std::vector.3" }
%"class.std::__cxx11::basic_string" = type { %"struct.std::__cxx11::basic_string<char>::_Alloc_hider", i64, %union.anon }
%"struct.std::__cxx11::basic_string<char>::_Alloc_hider" = type { ptr }
%union.anon = type { i64, [8 x i8] }
%"class.std::vector" = type { %"struct.std::_Vector_base" }
%"struct.std::_Vector_base" = type { %"struct.std::_Vector_base<int, std::allocator<int>>::_Vector_impl" }
%"struct.std::_Vector_base<int, std::allocator<int>>::_Vector_impl" = type { %"struct.std::_Vector_base<int, std::allocator<int>>::_Vector_impl_data" }
%"struct.std::_Vector_base<int, std::allocator<int>>::_Vector_impl_data" = type { ptr, ptr, ptr }
%"class.std::vector.3" = type { %"struct.std::_Vector_base.4" }
%"struct.std::_Vector_base.4" = type { %"struct.std::_Vector_base<ncnn::Mat, std::allocator<ncnn::Mat>>::_Vector_impl" }
%"struct.std::_Vector_base<ncnn::Mat, std::allocator<ncnn::Mat>>::_Vector_impl" = type { %"struct.std::_Vector_base<ncnn::Mat, std::allocator<ncnn::Mat>>::_Vector_impl_data" }
%"struct.std::_Vector_base<ncnn::Mat, std::allocator<ncnn::Mat>>::_Vector_impl_data" = type { ptr, ptr, ptr }
%"class.ncnn::Mat" = type { ptr, ptr, i64, i32, ptr, i32, i32, i32, i32, i32, i64 }

@1 = private unnamed_addr constant %struct.ident_t { i32 0, i32 514, i32 0, i32 22, ptr @0 }, align 8

; Function Attrs: noinline noreturn nounwind uwtable
define linkonce_odr hidden void @__clang_call_terminate(ptr noundef %0) #7 comdat {
  %2 = call ptr @__cxa_begin_catch(ptr %0) #10
  call void @_ZSt9terminatev() #13
  unreachable
}

; Function Attrs: alwaysinline mustprogress nounwind uwtable
define linkonce_odr hidden noundef nonnull align 4 dereferenceable(4) ptr @_ZNK4ncnn3MatixEm(ptr noundef nonnull align 8 dereferenceable(72) %0, i64 noundef %1) #3 comdat align 2 {
  %3 = alloca ptr, align 8
  %4 = alloca i64, align 8
  store ptr %0, ptr %3, align 8, !tbaa !39
  store i64 %1, ptr %4, align 8, !tbaa !66
  %5 = load ptr, ptr %3, align 8
  %6 = getelementptr inbounds nuw %"class.ncnn::Mat", ptr %5, i32 0, i32 0
  %7 = load ptr, ptr %6, align 8, !tbaa !58
  %8 = load i64, ptr %4, align 8, !tbaa !66
  %9 = getelementptr inbounds nuw float, ptr %7, i64 %8
  ret ptr %9
}

; Function Attrs: alwaysinline mustprogress nounwind uwtable
define linkonce_odr hidden noundef ptr @_ZN4ncnn3Mat3rowEi(ptr noundef nonnull align 8 dereferenceable(72) %0, i32 noundef %1) #3 comdat align 2 {
  %3 = alloca ptr, align 8
  %4 = alloca i32, align 4
  store ptr %0, ptr %3, align 8, !tbaa !39
  store i32 %1, ptr %4, align 4, !tbaa !43
  %5 = load ptr, ptr %3, align 8
  %6 = getelementptr inbounds nuw %"class.ncnn::Mat", ptr %5, i32 0, i32 0
  %7 = load ptr, ptr %6, align 8, !tbaa !58
  %8 = getelementptr inbounds nuw %"class.ncnn::Mat", ptr %5, i32 0, i32 6
  %9 = load i32, ptr %8, align 4, !tbaa !44
  %10 = sext i32 %9 to i64
  %11 = load i32, ptr %4, align 4, !tbaa !43
  %12 = sext i32 %11 to i64
  %13 = mul i64 %10, %12
  %14 = getelementptr inbounds nuw %"class.ncnn::Mat", ptr %5, i32 0, i32 2
  %15 = load i64, ptr %14, align 8, !tbaa !60
  %16 = mul i64 %13, %15
  %17 = getelementptr inbounds nuw i8, ptr %7, i64 %16
  ret ptr %17
}

; Function Attrs: alwaysinline norecurse nounwind uwtable
define internal void @_ZNK4ncnn7RMSNorm15forward_inplaceERNS_3MatERKNS_6OptionE.omp_outlined(ptr noalias noundef %0, ptr noalias noundef %1, ptr noundef nonnull align 4 dereferenceable(4) %2, ptr noundef nonnull align 8 dereferenceable(72) %3, ptr noundef nonnull align 4 dereferenceable(4) %4, ptr noundef %5) #9 personality ptr @__gxx_personality_v0 {
  %7 = alloca ptr, align 8
  %8 = alloca ptr, align 8
  %9 = alloca ptr, align 8
  %10 = alloca ptr, align 8
  %11 = alloca ptr, align 8
  %12 = alloca ptr, align 8
  %13 = alloca ptr, align 8
  %14 = alloca i32, align 4
  %15 = alloca i32, align 4
  %16 = alloca i32, align 4
  %17 = alloca i32, align 4
  %18 = alloca i32, align 4
  %19 = alloca i32, align 4
  %20 = alloca i32, align 4
  %21 = alloca i32, align 4
  %22 = alloca i32, align 4
  %23 = alloca ptr, align 8
  %24 = alloca float, align 4
  %25 = alloca i32, align 4
  %26 = alloca float, align 4
  %27 = alloca float, align 4
  %28 = alloca i32, align 4
  %29 = alloca i32, align 4
  store ptr %0, ptr %7, align 8, !tbaa !67
  store ptr %1, ptr %8, align 8, !tbaa !67
  store ptr %2, ptr %9, align 8, !tbaa !67
  store ptr %3, ptr %10, align 8, !tbaa !39
  store ptr %4, ptr %11, align 8, !tbaa !67
  store ptr %5, ptr %12, align 8, !tbaa !4
  %30 = load ptr, ptr %9, align 8, !tbaa !67
  %31 = load ptr, ptr %10, align 8, !tbaa !39
  %32 = load ptr, ptr %11, align 8, !tbaa !67
  %33 = load ptr, ptr %12, align 8, !tbaa !4
  store ptr %31, ptr %13, align 8
  call void @llvm.lifetime.start.p0(i64 4, ptr %14) #10
  call void @llvm.lifetime.start.p0(i64 4, ptr %15) #10
  %34 = load i32, ptr %30, align 4, !tbaa !43
  store i32 %34, ptr %15, align 4, !tbaa !43
  call void @llvm.lifetime.start.p0(i64 4, ptr %16) #10
  %35 = load i32, ptr %15, align 4, !tbaa !43
  %36 = sub nsw i32 %35, 0
  %37 = sdiv i32 %36, 1
  %38 = sub nsw i32 %37, 1
  store i32 %38, ptr %16, align 4, !tbaa !43
  call void @llvm.lifetime.start.p0(i64 4, ptr %17) #10
  store i32 0, ptr %17, align 4, !tbaa !43
  call void @llvm.lifetime.end.p0(i64 4, ptr %17) #10
  %39 = load i32, ptr %15, align 4, !tbaa !43
  %40 = icmp slt i32 0, %39
  br i1 %40, label %41, label %164

41:                                               ; preds = %6
  call void @llvm.lifetime.start.p0(i64 4, ptr %18) #10
  store i32 0, ptr %18, align 4, !tbaa !43
  call void @llvm.lifetime.start.p0(i64 4, ptr %19) #10
  %42 = load i32, ptr %16, align 4, !tbaa !43
  store i32 %42, ptr %19, align 4, !tbaa !43
  call void @llvm.lifetime.start.p0(i64 4, ptr %20) #10
  store i32 1, ptr %20, align 4, !tbaa !43
  call void @llvm.lifetime.start.p0(i64 4, ptr %21) #10
  store i32 0, ptr %21, align 4, !tbaa !43
  call void @llvm.lifetime.start.p0(i64 4, ptr %22) #10
  %43 = load ptr, ptr %7, align 8
  %44 = load i32, ptr %43, align 4, !tbaa !43
  call void @__kmpc_for_static_init_4(ptr @1, i32 %44, i32 34, ptr %21, ptr %18, ptr %19, ptr %20, i32 1, i32 1)
  %45 = load i32, ptr %19, align 4, !tbaa !43
  %46 = load i32, ptr %16, align 4, !tbaa !43
  %47 = icmp sgt i32 %45, %46
  br i1 %47, label %48, label %50

48:                                               ; preds = %41
  %49 = load i32, ptr %16, align 4, !tbaa !43
  br label %52

50:                                               ; preds = %41
  %51 = load i32, ptr %19, align 4, !tbaa !43
  br label %52

52:                                               ; preds = %50, %48
  %53 = phi i32 [ %49, %48 ], [ %51, %50 ]
  store i32 %53, ptr %19, align 4, !tbaa !43
  %54 = load i32, ptr %18, align 4, !tbaa !43
  store i32 %54, ptr %14, align 4, !tbaa !43
  br label %55

55:                                               ; preds = %157, %52
  %56 = load i32, ptr %14, align 4, !tbaa !43
  %57 = load i32, ptr %19, align 4, !tbaa !43
  %58 = icmp sle i32 %56, %57
  br i1 %58, label %60, label %59

59:                                               ; preds = %55
  br label %160

60:                                               ; preds = %55
  %61 = load i32, ptr %14, align 4, !tbaa !43
  %62 = mul nsw i32 %61, 1
  %63 = add nsw i32 0, %62
  store i32 %63, ptr %22, align 4, !tbaa !43
  call void @llvm.lifetime.start.p0(i64 8, ptr %23) #10
  %64 = load ptr, ptr %13, align 8, !tbaa !39
  %65 = load i32, ptr %22, align 4, !tbaa !43
  %66 = invoke noundef ptr @_ZN4ncnn3Mat3rowEi(ptr noundef nonnull align 8 dereferenceable(72) %64, i32 noundef %65)
          to label %67 unwind label %165

67:                                               ; preds = %60
  store ptr %66, ptr %23, align 8, !tbaa !45
  call void @llvm.lifetime.start.p0(i64 4, ptr %24) #10
  store float 0.000000e+00, ptr %24, align 4, !tbaa !47
  call void @llvm.lifetime.start.p0(i64 4, ptr %25) #10
  store i32 0, ptr %25, align 4, !tbaa !43
  br label %68

68:                                               ; preds = %87, %67
  %69 = load i32, ptr %25, align 4, !tbaa !43
  %70 = load i32, ptr %32, align 4, !tbaa !43
  %71 = icmp slt i32 %69, %70
  br i1 %71, label %73, label %72

72:                                               ; preds = %68
  call void @llvm.lifetime.end.p0(i64 4, ptr %25) #10
  br label %90

73:                                               ; preds = %68
  %74 = load ptr, ptr %23, align 8, !tbaa !45
  %75 = load i32, ptr %25, align 4, !tbaa !43
  %76 = sext i32 %75 to i64
  %77 = getelementptr inbounds float, ptr %74, i64 %76
  %78 = load float, ptr %77, align 4, !tbaa !47
  %79 = load ptr, ptr %23, align 8, !tbaa !45
  %80 = load i32, ptr %25, align 4, !tbaa !43
  %81 = sext i32 %80 to i64
  %82 = getelementptr inbounds float, ptr %79, i64 %81
  %83 = load float, ptr %82, align 4, !tbaa !47
  %84 = fmul fast float %78, %83
  %85 = load float, ptr %24, align 4, !tbaa !47
  %86 = fadd fast float %85, %84
  store float %86, ptr %24, align 4, !tbaa !47
  br label %87

87:                                               ; preds = %73
  %88 = load i32, ptr %25, align 4, !tbaa !43
  %89 = add nsw i32 %88, 1
  store i32 %89, ptr %25, align 4, !tbaa !43
  br label %68, !llvm.loop !68

90:                                               ; preds = %72
  call void @llvm.lifetime.start.p0(i64 4, ptr %26) #10
  %91 = load float, ptr %24, align 4, !tbaa !47
  %92 = load i32, ptr %32, align 4, !tbaa !43
  %93 = sitofp i32 %92 to float
  %94 = fdiv fast float %91, %93
  %95 = getelementptr inbounds nuw %"class.ncnn::RMSNorm", ptr %33, i32 0, i32 2
  %96 = load float, ptr %95, align 4, !tbaa !35
  %97 = fadd fast float %94, %96
  %98 = call fast float @llvm.sqrt.f32(float %97)
  store float %98, ptr %26, align 4, !tbaa !47
  call void @llvm.lifetime.start.p0(i64 4, ptr %27) #10
  %99 = load float, ptr %26, align 4, !tbaa !47
  %100 = fdiv fast float 1.000000e+00, %99
  store float %100, ptr %27, align 4, !tbaa !47
  %101 = getelementptr inbounds nuw %"class.ncnn::RMSNorm", ptr %33, i32 0, i32 3
  %102 = load i32, ptr %101, align 8, !tbaa !36
  %103 = icmp ne i32 %102, 0
  br i1 %103, label %104, label %133

104:                                              ; preds = %90
  call void @llvm.lifetime.start.p0(i64 4, ptr %28) #10
  store i32 0, ptr %28, align 4, !tbaa !43
  br label %105

105:                                              ; preds = %129, %104
  %106 = load i32, ptr %28, align 4, !tbaa !43
  %107 = load i32, ptr %32, align 4, !tbaa !43
  %108 = icmp slt i32 %106, %107
  br i1 %108, label %110, label %109

109:                                              ; preds = %105
  call void @llvm.lifetime.end.p0(i64 4, ptr %28) #10
  br label %132

110:                                              ; preds = %105
  %111 = load ptr, ptr %23, align 8, !tbaa !45
  %112 = load i32, ptr %28, align 4, !tbaa !43
  %113 = sext i32 %112 to i64
  %114 = getelementptr inbounds float, ptr %111, i64 %113
  %115 = load float, ptr %114, align 4, !tbaa !47
  %116 = load float, ptr %27, align 4, !tbaa !47
  %117 = fmul fast float %115, %116
  %118 = getelementptr inbounds nuw %"class.ncnn::RMSNorm", ptr %33, i32 0, i32 4
  %119 = load i32, ptr %28, align 4, !tbaa !43
  %120 = sext i32 %119 to i64
  %121 = invoke noundef nonnull align 4 dereferenceable(4) ptr @_ZNK4ncnn3MatixEm(ptr noundef nonnull align 8 dereferenceable(72) %118, i64 noundef %120)
          to label %122 unwind label %165

122:                                              ; preds = %110
  %123 = load float, ptr %121, align 4, !tbaa !47
  %124 = fmul fast float %117, %123
  %125 = load ptr, ptr %23, align 8, !tbaa !45
  %126 = load i32, ptr %28, align 4, !tbaa !43
  %127 = sext i32 %126 to i64
  %128 = getelementptr inbounds float, ptr %125, i64 %127
  store float %124, ptr %128, align 4, !tbaa !47
  br label %129

129:                                              ; preds = %122
  %130 = load i32, ptr %28, align 4, !tbaa !43
  %131 = add nsw i32 %130, 1
  store i32 %131, ptr %28, align 4, !tbaa !43
  br label %105, !llvm.loop !69

132:                                              ; preds = %109
  br label %155

133:                                              ; preds = %90
  call void @llvm.lifetime.start.p0(i64 4, ptr %29) #10
  store i32 0, ptr %29, align 4, !tbaa !43
  br label %134

134:                                              ; preds = %151, %133
  %135 = load i32, ptr %29, align 4, !tbaa !43
  %136 = load i32, ptr %32, align 4, !tbaa !43
  %137 = icmp slt i32 %135, %136
  br i1 %137, label %139, label %138

138:                                              ; preds = %134
  call void @llvm.lifetime.end.p0(i64 4, ptr %29) #10
  br label %154

139:                                              ; preds = %134
  %140 = load ptr, ptr %23, align 8, !tbaa !45
  %141 = load i32, ptr %29, align 4, !tbaa !43
  %142 = sext i32 %141 to i64
  %143 = getelementptr inbounds float, ptr %140, i64 %142
  %144 = load float, ptr %143, align 4, !tbaa !47
  %145 = load float, ptr %27, align 4, !tbaa !47
  %146 = fmul fast float %144, %145
  %147 = load ptr, ptr %23, align 8, !tbaa !45
  %148 = load i32, ptr %29, align 4, !tbaa !43
  %149 = sext i32 %148 to i64
  %150 = getelementptr inbounds float, ptr %147, i64 %149
  store float %146, ptr %150, align 4, !tbaa !47
  br label %151

151:                                              ; preds = %139
  %152 = load i32, ptr %29, align 4, !tbaa !43
  %153 = add nsw i32 %152, 1
  store i32 %153, ptr %29, align 4, !tbaa !43
  br label %134, !llvm.loop !70

154:                                              ; preds = %138
  br label %155

155:                                              ; preds = %154, %132
  call void @llvm.lifetime.end.p0(i64 4, ptr %27) #10
  call void @llvm.lifetime.end.p0(i64 4, ptr %26) #10
  call void @llvm.lifetime.end.p0(i64 4, ptr %24) #10
  call void @llvm.lifetime.end.p0(i64 8, ptr %23) #10
  br label %156

156:                                              ; preds = %155
  br label %157

157:                                              ; preds = %156
  %158 = load i32, ptr %14, align 4, !tbaa !43
  %159 = add nsw i32 %158, 1
  store i32 %159, ptr %14, align 4, !tbaa !43
  br label %55

160:                                              ; preds = %59
  br label %161

161:                                              ; preds = %160
  %162 = load ptr, ptr %7, align 8
  %163 = load i32, ptr %162, align 4, !tbaa !43
  call void @__kmpc_for_static_fini(ptr @1, i32 %163)
  call void @llvm.lifetime.end.p0(i64 4, ptr %22) #10
  call void @llvm.lifetime.end.p0(i64 4, ptr %21) #10
  call void @llvm.lifetime.end.p0(i64 4, ptr %20) #10
  call void @llvm.lifetime.end.p0(i64 4, ptr %19) #10
  call void @llvm.lifetime.end.p0(i64 4, ptr %18) #10
  br label %164

164:                                              ; preds = %161, %6
  call void @llvm.lifetime.end.p0(i64 4, ptr %16) #10
  call void @llvm.lifetime.end.p0(i64 4, ptr %15) #10
  call void @llvm.lifetime.end.p0(i64 4, ptr %14) #10
  ret void

165:                                              ; preds = %110, %60
  %166 = landingpad { ptr, i32 }
          catch ptr null
  %167 = extractvalue { ptr, i32 } %166, 0
  call void @__clang_call_terminate(ptr %167) #13
  unreachable
}