; Function Attrs: alwaysinline norecurse nounwind uwtable
define internal void @_ZNK4ncnn7RMSNorm15forward_inplaceERNS_3MatERKNS_6OptionE.omp_outlined(ptr noalias noundef readonly captures(none) %0, ptr noalias readnone captures(none) %1, ptr noundef nonnull readonly align 4 captures(none) dereferenceable(4) %2, ptr noundef nonnull readonly align 8 captures(none) dereferenceable(72) %3, ptr noundef nonnull readonly align 4 captures(none) dereferenceable(4) %4, ptr noundef readonly captures(none) %5) #10 personality ptr @__gxx_personality_v0 {
  %7 = alloca i32, align 4
  %8 = alloca i32, align 4
  %9 = alloca i32, align 4
  %10 = alloca i32, align 4
  %11 = load i32, ptr %2, align 4, !tbaa !49
  %12 = icmp sgt i32 %11, 0
  br i1 %12, label %13, label %70

13:                                               ; preds = %6
  %14 = add nsw i32 %11, -1
  call void @llvm.lifetime.start.p0(i64 4, ptr nonnull %7) #11
  store i32 0, ptr %7, align 4, !tbaa !49
  call void @llvm.lifetime.start.p0(i64 4, ptr nonnull %8) #11
  store i32 %14, ptr %8, align 4, !tbaa !49
  call void @llvm.lifetime.start.p0(i64 4, ptr nonnull %9) #11
  store i32 1, ptr %9, align 4, !tbaa !49
  call void @llvm.lifetime.start.p0(i64 4, ptr nonnull %10) #11
  store i32 0, ptr %10, align 4, !tbaa !49
  %15 = load i32, ptr %0, align 4, !tbaa !49
  call void @__kmpc_for_static_init_4(ptr nonnull @1, i32 %15, i32 34, ptr nonnull %10, ptr nonnull %7, ptr nonnull %8, ptr nonnull %9, i32 1, i32 1)
  %16 = load i32, ptr %8, align 4, !tbaa !49
  %17 = call i32 @llvm.smin.i32(i32 %16, i32 %14)
  store i32 %17, ptr %8, align 4, !tbaa !49
  %18 = load i32, ptr %7, align 4, !tbaa !49
  %.not54 = icmp sgt i32 %18, %17
  br i1 %.not54, label %._crit_edge58, label %.lr.ph57

.lr.ph57:                                         ; preds = %13
  %19 = load ptr, ptr %3, align 8, !tbaa !16
  %20 = getelementptr inbounds nuw i8, ptr %3, i64 44
  %21 = load i32, ptr %20, align 4, !tbaa !40
  %22 = sext i32 %21 to i64
  %23 = getelementptr inbounds nuw i8, ptr %3, i64 16
  %24 = load i64, ptr %23, align 8, !tbaa !37
  %factor.op.mul = mul i64 %24, %22
  %25 = load i32, ptr %4, align 4, !tbaa !49
  %26 = icmp sgt i32 %25, 0
  %27 = sitofp i32 %25 to float
  %28 = fdiv fast float 1.000000e+00, %27
  %29 = getelementptr inbounds nuw i8, ptr %5, i64 212
  %30 = getelementptr inbounds nuw i8, ptr %5, i64 216
  %31 = load i32, ptr %30, align 8, !tbaa !36
  %.not44 = icmp eq i32 %31, 0
  %32 = getelementptr inbounds nuw i8, ptr %5, i64 224
  br i1 %.not44, label %.lr.ph57.split.us, label %.lr.ph57.split

.lr.ph57.split.us:                                ; preds = %.lr.ph57
  br i1 %26, label %.lr.ph57.split.us.split.us.preheader, label %._crit_edge58

.lr.ph57.split.us.split.us.preheader:             ; preds = %.lr.ph57.split.us
  %33 = sext i32 %18 to i64
  %34 = add nsw i32 %17, 1
  %wide.trip.count101 = zext nneg i32 %25 to i64
  br label %.lr.ph.us.us.preheader

.lr.ph.us.us.preheader:                           ; preds = %..loopexit_crit_edge.us.us, %.lr.ph57.split.us.split.us.preheader
  %indvars.iv108 = phi i64 [ %33, %.lr.ph57.split.us.split.us.preheader ], [ %indvars.iv.next109, %..loopexit_crit_edge.us.us ]
  %.reass.us.us = mul i64 %factor.op.mul, %indvars.iv108
  %35 = getelementptr inbounds nuw i8, ptr %19, i64 %.reass.us.us
  br label %.lr.ph.us.us

.preheader.us.us:                                 ; preds = %.lr.ph.us.us
  %36 = fmul fast float %48, %28
  %37 = load float, ptr %29, align 4, !tbaa !35
  %38 = fadd fast float %37, %36
  %39 = call fast float @llvm.sqrt.f32(float %38)
  %40 = fdiv fast float 1.000000e+00, %39
  br label %41

41:                                               ; preds = %.preheader.us.us, %41
  %indvars.iv103 = phi i64 [ 0, %.preheader.us.us ], [ %indvars.iv.next104, %41 ]
  %42 = getelementptr inbounds nuw float, ptr %35, i64 %indvars.iv103
  %43 = load float, ptr %42, align 4, !tbaa !44
  %44 = fmul fast float %43, %40
  store float %44, ptr %42, align 4, !tbaa !44
  %indvars.iv.next104 = add nuw nsw i64 %indvars.iv103, 1
  %exitcond107.not = icmp eq i64 %indvars.iv.next104, %wide.trip.count101
  br i1 %exitcond107.not, label %..loopexit_crit_edge.us.us, label %41, !llvm.loop !54

.lr.ph.us.us:                                     ; preds = %.lr.ph.us.us.preheader, %.lr.ph.us.us
  %indvars.iv98 = phi i64 [ 0, %.lr.ph.us.us.preheader ], [ %indvars.iv.next99, %.lr.ph.us.us ]
  %.04148.us.us = phi float [ 0.000000e+00, %.lr.ph.us.us.preheader ], [ %48, %.lr.ph.us.us ]
  %45 = getelementptr inbounds nuw float, ptr %35, i64 %indvars.iv98
  %46 = load float, ptr %45, align 4, !tbaa !44
  %47 = fmul fast float %46, %46
  %48 = fadd fast float %47, %.04148.us.us
  %indvars.iv.next99 = add nuw nsw i64 %indvars.iv98, 1
  %exitcond102.not = icmp eq i64 %indvars.iv.next99, %wide.trip.count101
  br i1 %exitcond102.not, label %.preheader.us.us, label %.lr.ph.us.us, !llvm.loop !55

..loopexit_crit_edge.us.us:                       ; preds = %41
  %indvars.iv.next109 = add nsw i64 %indvars.iv108, 1
  %lftr.wideiv111 = trunc i64 %indvars.iv.next109 to i32
  %exitcond112.not = icmp eq i32 %34, %lftr.wideiv111
  br i1 %exitcond112.not, label %._crit_edge58, label %.lr.ph.us.us.preheader

.lr.ph57.split:                                   ; preds = %.lr.ph57
  br i1 %26, label %.lr.ph57.split.split.us, label %._crit_edge58

.lr.ph57.split.split.us:                          ; preds = %.lr.ph57.split
  %49 = load ptr, ptr %32, align 8, !tbaa !16
  %50 = sext i32 %18 to i64
  %51 = add nsw i32 %17, 1
  %wide.trip.count = zext nneg i32 %25 to i64
  br label %.lr.ph.us65.us

.lr.ph.us65.us:                                   ; preds = %..loopexit46_crit_edge.us.us, %.lr.ph57.split.split.us
  %indvars.iv94 = phi i64 [ %indvars.iv.next95, %..loopexit46_crit_edge.us.us ], [ %50, %.lr.ph57.split.split.us ]
  %.reass.us60.us = mul i64 %factor.op.mul, %indvars.iv94
  %52 = getelementptr inbounds nuw i8, ptr %19, i64 %.reass.us60.us
  br label %60

53:                                               ; preds = %53, %._crit_edge.us66.us
  %indvars.iv89 = phi i64 [ %indvars.iv.next90, %53 ], [ 0, %._crit_edge.us66.us ]
  %54 = getelementptr inbounds nuw float, ptr %52, i64 %indvars.iv89
  %55 = load float, ptr %54, align 4, !tbaa !44
  %56 = getelementptr inbounds nuw float, ptr %49, i64 %indvars.iv89
  %57 = load float, ptr %56, align 4, !tbaa !44
  %58 = fmul fast float %55, %57
  %59 = fmul fast float %58, %69
  store float %59, ptr %54, align 4, !tbaa !44
  %indvars.iv.next90 = add nuw nsw i64 %indvars.iv89, 1
  %exitcond93.not = icmp eq i64 %indvars.iv.next90, %wide.trip.count
  br i1 %exitcond93.not, label %..loopexit46_crit_edge.us.us, label %53, !llvm.loop !56

60:                                               ; preds = %.lr.ph.us65.us, %60
  %indvars.iv = phi i64 [ 0, %.lr.ph.us65.us ], [ %indvars.iv.next, %60 ]
  %.04148.us62.us = phi float [ 0.000000e+00, %.lr.ph.us65.us ], [ %64, %60 ]
  %61 = getelementptr inbounds nuw float, ptr %52, i64 %indvars.iv
  %62 = load float, ptr %61, align 4, !tbaa !44
  %63 = fmul fast float %62, %62
  %64 = fadd fast float %63, %.04148.us62.us
  %indvars.iv.next = add nuw nsw i64 %indvars.iv, 1
  %exitcond.not = icmp eq i64 %indvars.iv.next, %wide.trip.count
  br i1 %exitcond.not, label %._crit_edge.us66.us, label %60, !llvm.loop !55

._crit_edge.us66.us:                              ; preds = %60
  %65 = fmul fast float %64, %28
  %66 = load float, ptr %29, align 4, !tbaa !35
  %67 = fadd fast float %66, %65
  %68 = call fast float @llvm.sqrt.f32(float %67)
  %69 = fdiv fast float 1.000000e+00, %68
  br label %53

..loopexit46_crit_edge.us.us:                     ; preds = %53
  %indvars.iv.next95 = add nsw i64 %indvars.iv94, 1
  %lftr.wideiv = trunc i64 %indvars.iv.next95 to i32
  %exitcond97.not = icmp eq i32 %51, %lftr.wideiv
  br i1 %exitcond97.not, label %._crit_edge58, label %.lr.ph.us65.us

._crit_edge58:                                    ; preds = %..loopexit46_crit_edge.us.us, %..loopexit_crit_edge.us.us, %.lr.ph57.split, %.lr.ph57.split.us, %13
  call void @__kmpc_for_static_fini(ptr nonnull @1, i32 %15)
  call void @llvm.lifetime.end.p0(i64 4, ptr nonnull %10) #11
  call void @llvm.lifetime.end.p0(i64 4, ptr nonnull %9) #11
  call void @llvm.lifetime.end.p0(i64 4, ptr nonnull %8) #11
  call void @llvm.lifetime.end.p0(i64 4, ptr nonnull %7) #11
  br label %70

70:                                               ; preds = %._crit_edge58, %6
  ret void
}